target datalayout = "e-m:e-p270:32:32-p271:32:32-p272:64:64-i64:64-i128:128-f80:128-n8:16:32:64-S128"
target triple = "x86_64-pc-linux-gnu"

%struct.H5O_ginfo_t = type { i32, i8, i16, i16, i8, i16, i16 }
%struct.H5O_linfo_t = type { i8, i8, i64, i64, i64, i64, i64 }
%struct.H5O_pline_t = type { %struct.H5O_shared_t, i32, i64, i64, ptr }
%struct.H5O_shared_t = type { i32, ptr, i32, %union.anon }
%union.anon = type { %struct.H5O_mesg_loc_t }
%struct.H5O_mesg_loc_t = type { i32, i64 }
%struct.H5G_obj_create_t = type { i64, i32, %union.H5G_cache_t }
%union.H5G_cache_t = type { %struct.anon }
%struct.anon = type { i64, i64 }

@H5G_init_g = external global i8, align 1
@H5_libterm_g = external global i8, align 1
@.str = private unnamed_addr constant [100 x i8] c"generated/home/dtcxzyw/WorkSpace/Projects/compilers/llvm-opt-benchmark/bench/hdf5/hdf5/src/H5Gobj.c\00", align 1
@__func__.H5G__obj_create = private unnamed_addr constant [16 x i8] c"H5G__obj_create\00", align 1
@H5E_SYM_g = external global i64, align 8
@H5E_BADTYPE_g = external global i64, align 8
@.str.1 = private unnamed_addr constant [20 x i8] c"not a property list\00", align 1
@.str.2 = private unnamed_addr constant [11 x i8] c"group info\00", align 1
@H5E_CANTGET_g = external global i64, align 8
@.str.3 = private unnamed_addr constant [21 x i8] c"can't get group info\00", align 1
@.str.4 = private unnamed_addr constant [10 x i8] c"link info\00", align 1
@.str.5 = private unnamed_addr constant [6 x i8] c"pline\00", align 1
@H5E_CANTCREATE_g = external global i64, align 8
@.str.6 = private unnamed_addr constant [23 x i8] c"unable to create group\00", align 1

; Function Attrs: nounwind uwtable
define i32 @H5G__obj_create(ptr noundef %0, ptr noundef %1, ptr noundef %2) #0 {
  %4 = alloca ptr, align 8
  %5 = alloca ptr, align 8
  %6 = alloca ptr, align 8
  %7 = alloca ptr, align 8
  %8 = alloca %struct.H5O_ginfo_t, align 4
  %9 = alloca %struct.H5O_linfo_t, align 8
  %10 = alloca %struct.H5O_pline_t, align 8
  %11 = alloca i32, align 4
  %12 = alloca i8, align 1
  store ptr %0, ptr %4, align 8, !tbaa !3
  store ptr %1, ptr %5, align 8, !tbaa !8
  store ptr %2, ptr %6, align 8, !tbaa !10
  call void @llvm.lifetime.start.p0(i64 8, ptr %7) #6
  call void @llvm.lifetime.start.p0(i64 16, ptr %8) #6
  call void @llvm.lifetime.start.p0(i64 48, ptr %9) #6
  call void @llvm.lifetime.start.p0(i64 72, ptr %10) #6
  call void @llvm.lifetime.start.p0(i64 4, ptr %11) #6
  store i32 0, ptr %11, align 4, !tbaa !12
  call void @llvm.lifetime.start.p0(i64 1, ptr %12) #6
  store i8 0, ptr %12, align 1, !tbaa !14
  %13 = load i8, ptr @H5G_init_g, align 1, !tbaa !14, !range !16, !noundef !17
  %14 = trunc i8 %13 to i1
  br i1 %14, label %19, label %15

15:                                               ; preds = %3
  %16 = load i8, ptr @H5_libterm_g, align 1, !tbaa !14, !range !16, !noundef !17
  %17 = trunc i8 %16 to i1
  %18 = xor i1 %17, true
  br label %19

19:                                               ; preds = %15, %3
  %20 = phi i1 [ true, %3 ], [ %18, %15 ]
  %21 = xor i1 %20, true
  %22 = xor i1 %21, true
  %23 = zext i1 %22 to i32
  %24 = sext i32 %23 to i64
  %25 = call i64 @llvm.expect.i64(i64 %24, i64 1)
  %26 = icmp ne i64 %25, 0
  br i1 %26, label %27, label %148

27:                                               ; preds = %19
  %28 = load ptr, ptr %5, align 8, !tbaa !8
  %29 = getelementptr inbounds nuw %struct.H5G_obj_create_t, ptr %28, i32 0, i32 0
  %30 = load i64, ptr %29, align 8, !tbaa !18
  %31 = call ptr @H5I_object(i64 noundef %30)
  store ptr %31, ptr %7, align 8, !tbaa !21
  %32 = icmp eq ptr null, %31
  br i1 %32, label %33, label %52

33:                                               ; preds = %27
  br label %34

34:                                               ; preds = %33
  br label %35

35:                                               ; preds = %34
  br label %36

36:                                               ; preds = %35
  %37 = load i64, ptr @H5E_SYM_g, align 8, !tbaa !23
  %38 = load i64, ptr @H5E_BADTYPE_g, align 8, !tbaa !23
  %39 = call i32 (ptr, ptr, i32, i64, i64, ptr, ...) @H5E_printf_stack(ptr noundef @.str, ptr noundef @__func__.H5G__obj_create, i32 noundef 122, i64 noundef %37, i64 noundef %38, ptr noundef @.str.1)
  br label %40

40:                                               ; preds = %36
  br label %41

41:                                               ; preds = %40
  store i8 1, ptr %12, align 1, !tbaa !14
  %42 = load i8, ptr %12, align 1, !tbaa !14, !range !16, !noundef !17
  %43 = trunc i8 %42 to i1
  %44 = zext i1 %43 to i8
  store i8 %44, ptr %12, align 1, !tbaa !14
  br label %45

45:                                               ; preds = %41
  br label %46

46:                                               ; preds = %45
  br label %47

47:                                               ; preds = %46
  store i32 -1, ptr %11, align 4, !tbaa !12
  br label %147

48:                                               ; No predecessors!
  br label %49

49:                                               ; preds = %48
  br label %50

50:                                               ; preds = %49
  br label %51

51:                                               ; preds = %50
  br label %52

52:                                               ; preds = %51, %27
  %53 = load ptr, ptr %7, align 8, !tbaa !21
  %54 = call i32 @H5P_get(ptr noundef %53, ptr noundef @.str.2, ptr noundef %8)
  %55 = icmp slt i32 %54, 0
  br i1 %55, label %56, label %75

56:                                               ; preds = %52
  br label %57

57:                                               ; preds = %56
  br label %58

58:                                               ; preds = %57
  br label %59

59:                                               ; preds = %58
  %60 = load i64, ptr @H5E_SYM_g, align 8, !tbaa !23
  %61 = load i64, ptr @H5E_CANTGET_g, align 8, !tbaa !23
  %62 = call i32 (ptr, ptr, i32, i64, i64, ptr, ...) @H5E_printf_stack(ptr noundef @.str, ptr noundef @__func__.H5G__obj_create, i32 noundef 126, i64 noundef %60, i64 noundef %61, ptr noundef @.str.3)
  br label %63

63:                                               ; preds = %59
  br label %64

64:                                               ; preds = %63
  store i8 1, ptr %12, align 1, !tbaa !14
  %65 = load i8, ptr %12, align 1, !tbaa !14, !range !16, !noundef !17
  %66 = trunc i8 %65 to i1
  %67 = zext i1 %66 to i8
  store i8 %67, ptr %12, align 1, !tbaa !14
  br label %68

68:                                               ; preds = %64
  br label %69

69:                                               ; preds = %68
  br label %70

70:                                               ; preds = %69
  store i32 -1, ptr %11, align 4, !tbaa !12
  br label %147

71:                                               ; No predecessors!
  br label %72

72:                                               ; preds = %71
  br label %73

73:                                               ; preds = %72
  br label %74

74:                                               ; preds = %73
  br label %75

75:                                               ; preds = %74, %52
  %76 = load ptr, ptr %7, align 8, !tbaa !21
  %77 = call i32 @H5P_get(ptr noundef %76, ptr noundef @.str.4, ptr noundef %9)
  %78 = icmp slt i32 %77, 0
  br i1 %78, label %79, label %98

79:                                               ; preds = %75
  br label %80

80:                                               ; preds = %79
  br label %81

81:                                               ; preds = %80
  br label %82

82:                                               ; preds = %81
  %83 = load i64, ptr @H5E_SYM_g, align 8, !tbaa !23
  %84 = load i64, ptr @H5E_CANTGET_g, align 8, !tbaa !23
  %85 = call i32 (ptr, ptr, i32, i64, i64, ptr, ...) @H5E_printf_stack(ptr noundef @.str, ptr noundef @__func__.H5G__obj_create, i32 noundef 130, i64 noundef %83, i64 noundef %84, ptr noundef @.str.3)
  br label %86

86:                                               ; preds = %82
  br label %87

87:                                               ; preds = %86
  store i8 1, ptr %12, align 1, !tbaa !14
  %88 = load i8, ptr %12, align 1, !tbaa !14, !range !16, !noundef !17
  %89 = trunc i8 %88 to i1
  %90 = zext i1 %89 to i8
  store i8 %90, ptr %12, align 1, !tbaa !14
  br label %91

91:                                               ; preds = %87
  br label %92

92:                                               ; preds = %91
  br label %93

93:                                               ; preds = %92
  store i32 -1, ptr %11, align 4, !tbaa !12
  br label %147

94:                                               ; No predecessors!
  br label %95

95:                                               ; preds = %94
  br label %96

96:                                               ; preds = %95
  br label %97

97:                                               ; preds = %96
  br label %98

98:                                               ; preds = %97, %75
  %99 = load ptr, ptr %7, align 8, !tbaa !21
  %100 = call i32 @H5P_peek(ptr noundef %99, ptr noundef @.str.5, ptr noundef %10)
  %101 = icmp slt i32 %100, 0
  br i1 %101, label %102, label %121

102:                                              ; preds = %98
  br label %103

103:                                              ; preds = %102
  br label %104

104:                                              ; preds = %103
  br label %105

105:                                              ; preds = %104
  %106 = load i64, ptr @H5E_SYM_g, align 8, !tbaa !23
  %107 = load i64, ptr @H5E_CANTGET_g, align 8, !tbaa !23
  %108 = call i32 (ptr, ptr, i32, i64, i64, ptr, ...) @H5E_printf_stack(ptr noundef @.str, ptr noundef @__func__.H5G__obj_create, i32 noundef 134, i64 noundef %106, i64 noundef %107, ptr noundef @.str.3)
  br label %109

109:                                              ; preds = %105
  br label %110

110:                                              ; preds = %109
  store i8 1, ptr %12, align 1, !tbaa !14
  %111 = load i8, ptr %12, align 1, !tbaa !14, !range !16, !noundef !17
  %112 = trunc i8 %111 to i1
  %113 = zext i1 %112 to i8
  store i8 %113, ptr %12, align 1, !tbaa !14
  br label %114

114:                                              ; preds = %110
  br label %115

115:                                              ; preds = %114
  br label %116

116:                                              ; preds = %115
  store i32 -1, ptr %11, align 4, !tbaa !12
  br label %147

117:                                              ; No predecessors!
  br label %118

118:                                              ; preds = %117
  br label %119

119:                                              ; preds = %118
  br label %120

120:                                              ; preds = %119
  br label %121

121:                                              ; preds = %120, %98
  %122 = load ptr, ptr %4, align 8, !tbaa !3
  %123 = load ptr, ptr %5, align 8, !tbaa !8
  %124 = load ptr, ptr %6, align 8, !tbaa !10
  %125 = call i32 @H5G__obj_create_real(ptr noundef %122, ptr noundef %8, ptr noundef %9, ptr noundef %10, ptr noundef %123, ptr noundef %124)
  %126 = icmp slt i32 %125, 0
  br i1 %126, label %127, label %146

127:                                              ; preds = %121
  br label %128

128:                                              ; preds = %127
  br label %129

129:                                              ; preds = %128
  br label %130

130:                                              ; preds = %129
  %131 = load i64, ptr @H5E_SYM_g, align 8, !tbaa !23
  %132 = load i64, ptr @H5E_CANTCREATE_g, align 8, !tbaa !23
  %133 = call i32 (ptr, ptr, i32, i64, i64, ptr, ...) @H5E_printf_stack(ptr noundef @.str, ptr noundef @__func__.H5G__obj_create, i32 noundef 138, i64 noundef %131, i64 noundef %132, ptr noundef @.str.6)
  br label %134

134:                                              ; preds = %130
  br label %135

135:                                              ; preds = %134
  store i8 1, ptr %12, align 1, !tbaa !14
  %136 = load i8, ptr %12, align 1, !tbaa !14, !range !16, !noundef !17
  %137 = trunc i8 %136 to i1
  %138 = zext i1 %137 to i8
  store i8 %138, ptr %12, align 1, !tbaa !14
  br label %139

139:                                              ; preds = %135
  br label %140

140:                                              ; preds = %139
  br label %141

141:                                              ; preds = %140
  store i32 -1, ptr %11, align 4, !tbaa !12
  br label %147

142:                                              ; No predecessors!
  br label %143

143:                                              ; preds = %142
  br label %144

144:                                              ; preds = %143
  br label %145

145:                                              ; preds = %144
  br label %146

146:                                              ; preds = %145, %121
  br label %147

147:                                              ; preds = %146, %141, %116, %93, %70, %47
  br label %148

148:                                              ; preds = %147, %19
  %149 = load i32, ptr %11, align 4, !tbaa !12
  call void @llvm.lifetime.end.p0(i64 1, ptr %12) #6
  call void @llvm.lifetime.end.p0(i64 4, ptr %11) #6
  call void @llvm.lifetime.end.p0(i64 72, ptr %10) #6
  call void @llvm.lifetime.end.p0(i64 48, ptr %9) #6
  call void @llvm.lifetime.end.p0(i64 16, ptr %8) #6
  call void @llvm.lifetime.end.p0(i64 8, ptr %7) #6
  ret i32 %149
}