; Function Attrs: nounwind uwtable
define range(i32 -1, 1) i32 @H5G__obj_create(ptr noundef %0, ptr noundef captures(none) %1, ptr noundef %2) local_unnamed_addr #0 {
  %4 = alloca %struct.H5O_ginfo_t, align 4
  %5 = alloca %struct.H5O_linfo_t, align 8
  %6 = alloca %struct.H5O_pline_t, align 8
  call void @llvm.lifetime.start.p0(i64 16, ptr nonnull %4) #5
  call void @llvm.lifetime.start.p0(i64 48, ptr nonnull %5) #5
  call void @llvm.lifetime.start.p0(i64 72, ptr nonnull %6) #5
  %7 = load i8, ptr @H5G_init_g, align 1, !tbaa !3, !range !7, !noundef !8
  %8 = trunc nuw i8 %7 to i1
  %9 = load i8, ptr @H5_libterm_g, align 1, !range !7
  %10 = trunc nuw i8 %9 to i1
  %11 = xor i1 %10, true
  %12 = select i1 %8, i1 true, i1 %11
  br i1 %12, label %13, label %49, !prof !9

13:                                               ; preds = %3
  %14 = load i64, ptr %1, align 8, !tbaa !10
  %15 = tail call ptr @H5I_object(i64 noundef %14) #5
  %16 = icmp eq ptr %15, null
  br i1 %16, label %17, label %21

17:                                               ; preds = %13
  %18 = load i64, ptr @H5E_SYM_g, align 8, !tbaa !14
  %19 = load i64, ptr @H5E_BADTYPE_g, align 8, !tbaa !14
  %20 = tail call i32 (ptr, ptr, i32, i64, i64, ptr, ...) @H5E_printf_stack(ptr noundef nonnull @.str, ptr noundef nonnull @__func__.H5G__obj_create, i32 noundef 122, i64 noundef %18, i64 noundef %19, ptr noundef nonnull @.str.1) #5
  br label %49

21:                                               ; preds = %13
  %22 = call i32 @H5P_get(ptr noundef nonnull %15, ptr noundef nonnull @.str.2, ptr noundef nonnull %4) #5
  %23 = icmp slt i32 %22, 0
  br i1 %23, label %24, label %28

24:                                               ; preds = %21
  %25 = load i64, ptr @H5E_SYM_g, align 8, !tbaa !14
  %26 = load i64, ptr @H5E_CANTGET_g, align 8, !tbaa !14
  %27 = call i32 (ptr, ptr, i32, i64, i64, ptr, ...) @H5E_printf_stack(ptr noundef nonnull @.str, ptr noundef nonnull @__func__.H5G__obj_create, i32 noundef 126, i64 noundef %25, i64 noundef %26, ptr noundef nonnull @.str.3) #5
  br label %49

28:                                               ; preds = %21
  %29 = call i32 @H5P_get(ptr noundef nonnull %15, ptr noundef nonnull @.str.4, ptr noundef nonnull %5) #5
  %30 = icmp slt i32 %29, 0
  br i1 %30, label %31, label %35

31:                                               ; preds = %28
  %32 = load i64, ptr @H5E_SYM_g, align 8, !tbaa !14
  %33 = load i64, ptr @H5E_CANTGET_g, align 8, !tbaa !14
  %34 = call i32 (ptr, ptr, i32, i64, i64, ptr, ...) @H5E_printf_stack(ptr noundef nonnull @.str, ptr noundef nonnull @__func__.H5G__obj_create, i32 noundef 130, i64 noundef %32, i64 noundef %33, ptr noundef nonnull @.str.3) #5
  br label %49

35:                                               ; preds = %28
  %36 = call i32 @H5P_peek(ptr noundef nonnull %15, ptr noundef nonnull @.str.5, ptr noundef nonnull %6) #5
  %37 = icmp slt i32 %36, 0
  br i1 %37, label %38, label %42

38:                                               ; preds = %35
  %39 = load i64, ptr @H5E_SYM_g, align 8, !tbaa !14
  %40 = load i64, ptr @H5E_CANTGET_g, align 8, !tbaa !14
  %41 = call i32 (ptr, ptr, i32, i64, i64, ptr, ...) @H5E_printf_stack(ptr noundef nonnull @.str, ptr noundef nonnull @__func__.H5G__obj_create, i32 noundef 134, i64 noundef %39, i64 noundef %40, ptr noundef nonnull @.str.3) #5
  br label %49

42:                                               ; preds = %35
  %43 = call i32 @H5G__obj_create_real(ptr noundef %0, ptr noundef nonnull %4, ptr noundef nonnull %5, ptr noundef nonnull %6, ptr noundef nonnull %1, ptr noundef %2)
  %44 = icmp slt i32 %43, 0
  br i1 %44, label %45, label %49

45:                                               ; preds = %42
  %46 = load i64, ptr @H5E_SYM_g, align 8, !tbaa !14
  %47 = load i64, ptr @H5E_CANTCREATE_g, align 8, !tbaa !14
  %48 = call i32 (ptr, ptr, i32, i64, i64, ptr, ...) @H5E_printf_stack(ptr noundef nonnull @.str, ptr noundef nonnull @__func__.H5G__obj_create, i32 noundef 138, i64 noundef %46, i64 noundef %47, ptr noundef nonnull @.str.6) #5
  br label %49

49:                                               ; preds = %17, %24, %31, %38, %45, %42, %3
  %.0 = phi i32 [ -1, %17 ], [ -1, %24 ], [ -1, %31 ], [ -1, %38 ], [ -1, %45 ], [ 0, %42 ], [ 0, %3 ]
  call void @llvm.lifetime.end.p0(i64 72, ptr nonnull %6) #5
  call void @llvm.lifetime.end.p0(i64 48, ptr nonnull %5) #5
  call void @llvm.lifetime.end.p0(i64 16, ptr nonnull %4) #5
  ret i32 %.0
}